; Function Attrs: mustprogress nofree norecurse nounwind willreturn memory(argmem: readwrite) uwtable
define noundef zeroext i1 @_ZN17grpc_event_engine12experimental22WorkStealingThreadPool26WorkStealingThreadPoolImpl12SetThrottledEb(ptr nocapture noundef nonnull align 8 dereferenceable(632) %this, i1 noundef zeroext %throttled) local_unnamed_addr #5 align 2 {
entry:
  %throttled_ = getelementptr inbounds i8, ptr %this, i64 240
  %frombool.i = zext i1 %throttled to i8
  %0 = atomicrmw xchg ptr %throttled_, i8 %frombool.i monotonic, align 1
  %1 = and i8 %0, 1
  %tobool3.i.i = icmp ne i8 %1, 0
  ret i1 %tobool3.i.i
}